; Function Attrs: mustprogress uwtable
define void @_ZN2cv3ccm20ColorCorrectionModel4Impl8getColorENS_3MatENS0_11COLOR_SPACEE(ptr noundef nonnull align 8 dereferenceable(1008) %0, ptr noundef %1, i32 noundef %2) local_unnamed_addr #0 align 2 personality ptr @__gxx_personality_v0 {
  %4 = alloca %"class.cv::Mat", align 8
  %5 = alloca %"class.std::shared_ptr.43", align 8
  %6 = getelementptr inbounds nuw i8, ptr %0, i64 96
  %7 = tail call noalias noundef nonnull dereferenceable(352) ptr @_Znwm(i64 noundef 352) #22
  invoke void @_ZN2cv3MatC1ERKS0_(ptr noundef nonnull align 8 dereferenceable(96) %4, ptr noundef nonnull align 8 dereferenceable(96) %1)
          to label %8 unwind label %.thread

8:                                                ; preds = %3
  call void @llvm.lifetime.start.p0(i64 16, ptr nonnull %5) #21
  %9 = invoke noundef nonnull align 8 dereferenceable(48) ptr @_ZN2cv3ccm5GetCS11getInstanceEv()
          to label %10 unwind label %.thread14

10:                                               ; preds = %8
  invoke void @_ZN2cv3ccm5GetCS6get_csENS0_11COLOR_SPACEE(ptr dead_on_unwind nonnull writable sret(%"class.std::shared_ptr.43") align 8 %5, ptr noundef nonnull align 8 dereferenceable(48) %9, i32 noundef %2)
          to label %11 unwind label %.thread14

11:                                               ; preds = %10
  %12 = load ptr, ptr %5, align 8, !tbaa !180
  invoke void @_ZN2cv3ccm5ColorC1ENS_3MatERKNS0_10ColorSpaceE(ptr noundef nonnull align 8 dereferenceable(352) %7, ptr noundef nonnull %4, ptr noundef nonnull align 8 dereferenceable(200) %12)
          to label %13 unwind label %40

13:                                               ; preds = %11
  invoke void @_ZNSt12__shared_ptrIN2cv3ccm5ColorELN9__gnu_cxx12_Lock_policyE2EE5resetIS2_EENSt9enable_ifIXsr21__sp_is_constructibleIS2_T_EE5valueEvE4typeEPS8_(ptr noundef nonnull align 8 dereferenceable(16) %6, ptr noundef nonnull %7)
          to label %14 unwind label %40

14:                                               ; preds = %13
  %15 = getelementptr inbounds nuw i8, ptr %5, i64 8
  %16 = load ptr, ptr %15, align 8, !tbaa !20
  %.not.i.i = icmp eq ptr %16, null
  br i1 %.not.i.i, label %_ZNSt12__shared_ptrIN2cv3ccm10ColorSpaceELN9__gnu_cxx12_Lock_policyE2EED2Ev.exit, label %17

17:                                               ; preds = %14
  %18 = getelementptr inbounds nuw i8, ptr %16, i64 8
  %19 = load atomic i64, ptr %18 acquire, align 8
  %20 = icmp eq i64 %19, 4294967297
  %21 = trunc i64 %19 to i32
  br i1 %20, label %22, label %30

22:                                               ; preds = %17
  store i32 0, ptr %18, align 8, !tbaa !14
  %23 = getelementptr inbounds nuw i8, ptr %16, i64 12
  store i32 0, ptr %23, align 4, !tbaa !17
  %24 = load ptr, ptr %16, align 8, !tbaa !18
  %25 = getelementptr inbounds nuw i8, ptr %24, i64 16
  %26 = load ptr, ptr %25, align 8
  call void %26(ptr noundef nonnull align 8 dereferenceable(16) %16) #21
  %27 = load ptr, ptr %16, align 8, !tbaa !18
  %28 = getelementptr inbounds nuw i8, ptr %27, i64 24
  %29 = load ptr, ptr %28, align 8
  call void %29(ptr noundef nonnull align 8 dereferenceable(16) %16) #21
  br label %_ZNSt12__shared_ptrIN2cv3ccm10ColorSpaceELN9__gnu_cxx12_Lock_policyE2EED2Ev.exit

30:                                               ; preds = %17
  %31 = load i8, ptr @__libc_single_threaded, align 1, !tbaa !25
  %.not.i.i.i = icmp eq i8 %31, 0
  br i1 %.not.i.i.i, label %34, label %32

32:                                               ; preds = %30
  %33 = add nsw i32 %21, -1
  store i32 %33, ptr %18, align 4, !tbaa !26
  br label %_ZN9__gnu_cxx27__exchange_and_add_dispatchEPii.exit.i.i.i

34:                                               ; preds = %30
  %35 = atomicrmw volatile add ptr %18, i32 -1 acq_rel, align 4
  br label %_ZN9__gnu_cxx27__exchange_and_add_dispatchEPii.exit.i.i.i

_ZN9__gnu_cxx27__exchange_and_add_dispatchEPii.exit.i.i.i: ; preds = %34, %32
  %.0.i.i.i.i = phi i32 [ %21, %32 ], [ %35, %34 ]
  %36 = icmp eq i32 %.0.i.i.i.i, 1
  br i1 %36, label %37, label %_ZNSt12__shared_ptrIN2cv3ccm10ColorSpaceELN9__gnu_cxx12_Lock_policyE2EED2Ev.exit, !prof !27

37:                                               ; preds = %_ZN9__gnu_cxx27__exchange_and_add_dispatchEPii.exit.i.i.i
  call void @_ZNSt16_Sp_counted_baseILN9__gnu_cxx12_Lock_policyE2EE24_M_release_last_use_coldEv(ptr noundef nonnull align 8 dereferenceable(16) %16) #21
  br label %_ZNSt12__shared_ptrIN2cv3ccm10ColorSpaceELN9__gnu_cxx12_Lock_policyE2EED2Ev.exit

_ZNSt12__shared_ptrIN2cv3ccm10ColorSpaceELN9__gnu_cxx12_Lock_policyE2EED2Ev.exit: ; preds = %14, %22, %_ZN9__gnu_cxx27__exchange_and_add_dispatchEPii.exit.i.i.i, %37
  call void @llvm.lifetime.end.p0(i64 16, ptr nonnull %5) #21
  call void @_ZN2cv3MatD1Ev(ptr noundef nonnull align 8 dereferenceable(96) %4) #21
  ret void

.thread:                                          ; preds = %3
  %38 = landingpad { ptr, i32 }
          cleanup
  br label %42

.thread14:                                        ; preds = %8, %10
  %39 = landingpad { ptr, i32 }
          cleanup
  call void @llvm.lifetime.end.p0(i64 16, ptr nonnull %5) #21
  call void @_ZN2cv3MatD1Ev(ptr noundef nonnull align 8 dereferenceable(96) %4) #21
  br label %42

40:                                               ; preds = %11, %13
  %.0 = phi i1 [ false, %13 ], [ true, %11 ]
  %41 = landingpad { ptr, i32 }
          cleanup
  call void @_ZNSt12__shared_ptrIN2cv3ccm10ColorSpaceELN9__gnu_cxx12_Lock_policyE2EED2Ev(ptr noundef nonnull align 8 dereferenceable(16) %5) #21
  call void @llvm.lifetime.end.p0(i64 16, ptr nonnull %5) #21
  call void @_ZN2cv3MatD1Ev(ptr noundef nonnull align 8 dereferenceable(96) %4) #21
  br i1 %.0, label %42, label %43

42:                                               ; preds = %.thread14, %.thread, %40
  %.pn.pn13 = phi { ptr, i32 } [ %38, %.thread ], [ %41, %40 ], [ %39, %.thread14 ]
  call void @_ZdlPv(ptr noundef nonnull %7) #23
  br label %43

43:                                               ; preds = %40, %42
  %.pn.pn12 = phi { ptr, i32 } [ %41, %40 ], [ %.pn.pn13, %42 ]
  resume { ptr, i32 } %.pn.pn12
}